target datalayout = "e-m:e-p270:32:32-p271:32:32-p272:64:64-i64:64-i128:128-f80:128-n8:16:32:64-S128"
target triple = "x86_64-pc-linux-gnu"

%struct.UEnumeration = type { ptr, ptr, ptr, ptr, ptr, ptr, ptr }
%struct.UCurrencyContext = type { i32, i32 }

; Function Attrs: mustprogress uwtable
define ptr @ucurr_openISOCurrencies_77(i32 noundef %0, ptr noundef %1) #1 {
  %3 = alloca ptr, align 8
  %4 = alloca i32, align 4
  %5 = alloca ptr, align 8
  %6 = alloca ptr, align 8
  %7 = alloca ptr, align 8
  %8 = alloca i32, align 4
  store i32 %0, ptr %4, align 4, !tbaa !14
  store ptr %1, ptr %5, align 8, !tbaa !22
  call void @llvm.lifetime.start.p0(i64 8, ptr %6) #12
  store ptr null, ptr %6, align 8, !tbaa !123
  call void @llvm.lifetime.start.p0(i64 8, ptr %7) #12
  %9 = call noalias ptr @uprv_malloc_77(i64 noundef 56) #13
  store ptr %9, ptr %6, align 8, !tbaa !123
  %10 = load ptr, ptr %6, align 8, !tbaa !123
  %11 = icmp eq ptr %10, null
  br i1 %11, label %12, label %14

12:                                               ; preds = %2
  %13 = load ptr, ptr %5, align 8, !tbaa !22
  store i32 7, ptr %13, align 4, !tbaa !15
  store ptr null, ptr %3, align 8
  store i32 1, ptr %8, align 4
  br label %35

14:                                               ; preds = %2
  br label %15

15:                                               ; preds = %14
  %16 = load ptr, ptr %6, align 8, !tbaa !123
  call void @llvm.memcpy.p0.p0.i64(ptr align 8 %16, ptr align 8 @_ZL17gEnumCurrencyList, i64 56, i1 false)
  br label %17

17:                                               ; preds = %15
  br label %18

18:                                               ; preds = %17
  %19 = call noalias ptr @uprv_malloc_77(i64 noundef 8) #13
  store ptr %19, ptr %7, align 8, !tbaa !125
  %20 = load ptr, ptr %7, align 8, !tbaa !125
  %21 = icmp eq ptr %20, null
  br i1 %21, label %22, label %25

22:                                               ; preds = %18
  %23 = load ptr, ptr %5, align 8, !tbaa !22
  store i32 7, ptr %23, align 4, !tbaa !15
  %24 = load ptr, ptr %6, align 8, !tbaa !123
  call void @uprv_free_77(ptr noundef %24)
  store ptr null, ptr %3, align 8
  store i32 1, ptr %8, align 4
  br label %35

25:                                               ; preds = %18
  %26 = load i32, ptr %4, align 4, !tbaa !14
  %27 = load ptr, ptr %7, align 8, !tbaa !125
  %28 = getelementptr inbounds nuw %struct.UCurrencyContext, ptr %27, i32 0, i32 0
  store i32 %26, ptr %28, align 4, !tbaa !127
  %29 = load ptr, ptr %7, align 8, !tbaa !125
  %30 = getelementptr inbounds nuw %struct.UCurrencyContext, ptr %29, i32 0, i32 1
  store i32 0, ptr %30, align 4, !tbaa !129
  %31 = load ptr, ptr %7, align 8, !tbaa !125
  %32 = load ptr, ptr %6, align 8, !tbaa !123
  %33 = getelementptr inbounds nuw %struct.UEnumeration, ptr %32, i32 0, i32 1
  store ptr %31, ptr %33, align 8, !tbaa !130
  %34 = load ptr, ptr %6, align 8, !tbaa !123
  store ptr %34, ptr %3, align 8
  store i32 1, ptr %8, align 4
  br label %35

35:                                               ; preds = %25, %22, %12
  call void @llvm.lifetime.end.p0(i64 8, ptr %7) #12
  call void @llvm.lifetime.end.p0(i64 8, ptr %6) #12
  %36 = load ptr, ptr %3, align 8
  ret ptr %36
}