; Function Attrs: mustprogress uwtable
define noundef ptr @ucurr_openISOCurrencies_77(i32 noundef %0, ptr noundef writeonly captures(none) %1) local_unnamed_addr #1 {
  %3 = tail call noalias dereferenceable_or_null(56) ptr @uprv_malloc_77(i64 noundef 56) #21
  %4 = icmp eq ptr %3, null
  br i1 %4, label %5, label %6

5:                                                ; preds = %2
  store i32 7, ptr %1, align 4, !tbaa !13
  br label %13

6:                                                ; preds = %2
  tail call void @llvm.memcpy.p0.p0.i64(ptr noundef nonnull align 8 dereferenceable(56) %3, ptr noundef nonnull align 8 dereferenceable(56) @_ZL17gEnumCurrencyList, i64 56, i1 false)
  %7 = tail call noalias dereferenceable_or_null(8) ptr @uprv_malloc_77(i64 noundef 8) #21
  %8 = icmp eq ptr %7, null
  br i1 %8, label %9, label %10

9:                                                ; preds = %6
  store i32 7, ptr %1, align 4, !tbaa !13
  tail call void @uprv_free_77(ptr noundef nonnull %3)
  br label %13

10:                                               ; preds = %6
  store i32 %0, ptr %7, align 4, !tbaa !98
  %11 = getelementptr inbounds nuw i8, ptr %7, i64 4
  store i32 0, ptr %11, align 4, !tbaa !100
  %12 = getelementptr inbounds nuw i8, ptr %3, i64 8
  store ptr %7, ptr %12, align 8, !tbaa !101
  br label %13

13:                                               ; preds = %10, %9, %5
  %.0 = phi ptr [ null, %5 ], [ null, %9 ], [ %3, %10 ]
  ret ptr %.0
}